#include <math.h>
#include <stdio.h>
#include <stdlib.h>
#include <string.h>

int main()
{
	int a[6],t,i,k,m;
	for (k=1;k<=4;++k)
	{
		scanf("%d",&t);
		m=0;
		for (i=1;t>0;++i)
		{
			a[m]=t%10;
			t=(int)(t/10);
			printf("%d",a[m]);
			m++;
		}
		printf("\n");
	}
		return(0);
}